; Function Attrs: mustprogress nounwind uwtable
define dso_local noundef i32 @_ZNK4llvm16TargetSchedModel19computeInstrLatencyEj(ptr noundef nonnull align 8 dereferenceable(280) %0, i32 noundef %1) local_unnamed_addr #0 align 2 {
  %3 = getelementptr inbounds nuw i8, ptr %0, i64 184
  %4 = load ptr, ptr %3, align 8
  %5 = getelementptr inbounds i8, ptr %4, i64 8
  %6 = load ptr, ptr %5, align 8
  %7 = zext i32 %1 to i64
  %8 = sub nsw i64 0, %7
  %9 = getelementptr inbounds %"class.llvm::MCInstrDesc", ptr %6, i64 %8, i32 4
  %10 = load i16, ptr %9, align 2
  %11 = zext i16 %10 to i32
  %12 = getelementptr inbounds nuw i8, ptr %0, i64 176
  %13 = load ptr, ptr %12, align 8
  %14 = tail call noundef i32 @_ZNK4llvm12MCSchedModel19computeInstrLatencyERKNS_15MCSubtargetInfoEj(ptr noundef nonnull align 8 dereferenceable(72) %0, ptr noundef nonnull align 8 dereferenceable(288) %13, i32 noundef %11) #11
  %15 = icmp sgt i32 %14, -1
  %16 = select i1 %15, i32 %14, i32 1000
  ret i32 %16
}